; Function Attrs: inlinehint mustprogress uwtable
define internal void @"_ZN4pbrt3$_58__invokeENS_6Point2IiEEiRNS_21PixelStatsAccumulatorE"(i64 %0, i32 noundef %1, ptr noundef nonnull align 8 dereferenceable(8) %2) #15 align 2 {
  %4 = tail call align 8 ptr @llvm.threadlocal.address.p0(ptr align 8 @_ZN4pbrtL8nTriHitsE)
  %5 = load i64, ptr %4, align 8, !tbaa !59
  %6 = tail call align 8 ptr @llvm.threadlocal.address.p0(ptr align 8 @_ZN4pbrtL9nTriTestsE)
  %7 = load i64, ptr %6, align 8, !tbaa !59
  tail call void @_ZN4pbrt21PixelStatsAccumulator11ReportRatioENS_6Point2IiEEiPKcll(ptr noundef nonnull align 8 dereferenceable(8) %2, i64 %0, i32 noundef %1, ptr noundef nonnull @.str.115, i64 noundef %5, i64 noundef %7)
  %8 = load i64, ptr %4, align 8, !tbaa !59
  %9 = tail call align 8 ptr @llvm.threadlocal.address.p0(ptr align 8 @_ZN4pbrtL11nTriHitsSumE)
  %10 = load i64, ptr %9, align 8, !tbaa !59
  %11 = add nsw i64 %10, %8
  store i64 %11, ptr %9, align 8, !tbaa !59
  %12 = load i64, ptr %6, align 8, !tbaa !59
  %13 = tail call align 8 ptr @llvm.threadlocal.address.p0(ptr align 8 @_ZN4pbrtL12nTriTestsSumE)
  %14 = load i64, ptr %13, align 8, !tbaa !59
  %15 = add nsw i64 %14, %12
  store i64 %15, ptr %13, align 8, !tbaa !59
  store i64 0, ptr %4, align 8, !tbaa !59
  store i64 0, ptr %6, align 8, !tbaa !59
  ret void
}